target datalayout = "e-m:e-p270:32:32-p271:32:32-p272:64:64-i64:64-i128:128-f80:128-n8:16:32:64-S128"
target triple = "x86_64-pc-linux-gnu"

; Function Attrs: nounwind sspstrong uwtable
define internal i64 @fun_sio_from_gb18030(ptr noundef %0, ptr noundef %1, i64 noundef %2, i64 noundef %3, ptr noundef %4, i64 noundef %5) #0 {
  %7 = alloca ptr, align 8
  %8 = alloca ptr, align 8
  %9 = alloca i64, align 8
  %10 = alloca i64, align 8
  %11 = alloca ptr, align 8
  %12 = alloca i64, align 8
  %13 = alloca i32, align 4
  %14 = alloca i32, align 4
  store ptr %0, ptr %7, align 8, !tbaa !6
  store ptr %1, ptr %8, align 8, !tbaa !10
  store i64 %2, ptr %9, align 8, !tbaa !12
  store i64 %3, ptr %10, align 8, !tbaa !12
  store ptr %4, ptr %11, align 8, !tbaa !10
  store i64 %5, ptr %12, align 8, !tbaa !12
  call void @llvm.lifetime.start.p0(i64 4, ptr %13) #3
  %15 = load i64, ptr %10, align 8, !tbaa !12
  %16 = lshr i64 %15, 8
  %17 = trunc i64 %16 to i32
  store i32 %17, ptr %13, align 4, !tbaa !15
  call void @llvm.lifetime.start.p0(i64 4, ptr %14) #3
  %18 = load i32, ptr %13, align 4, !tbaa !15
  %19 = and i32 %18, 131072
  %20 = icmp ne i32 %19, 0
  br i1 %20, label %21, label %47

21:                                               ; preds = %6
  %22 = load ptr, ptr %8, align 8, !tbaa !10
  %23 = getelementptr inbounds i8, ptr %22, i64 0
  %24 = load i8, ptr %23, align 1, !tbaa !14
  %25 = zext i8 %24 to i32
  %26 = mul nsw i32 %25, 10
  %27 = load ptr, ptr %8, align 8, !tbaa !10
  %28 = getelementptr inbounds i8, ptr %27, i64 1
  %29 = load i8, ptr %28, align 1, !tbaa !14
  %30 = zext i8 %29 to i32
  %31 = add nsw i32 %26, %30
  %32 = mul nsw i32 %31, 126
  %33 = load ptr, ptr %8, align 8, !tbaa !10
  %34 = getelementptr inbounds i8, ptr %33, i64 2
  %35 = load i8, ptr %34, align 1, !tbaa !14
  %36 = zext i8 %35 to i32
  %37 = add nsw i32 %32, %36
  %38 = mul nsw i32 %37, 10
  %39 = load ptr, ptr %8, align 8, !tbaa !10
  %40 = getelementptr inbounds i8, ptr %39, i64 3
  %41 = load i8, ptr %40, align 1, !tbaa !14
  %42 = zext i8 %41 to i32
  %43 = add nsw i32 %38, %42
  %44 = load i32, ptr %13, align 4, !tbaa !15
  %45 = sub i32 %43, %44
  %46 = sub i32 %45, 1507328
  store i32 %46, ptr %14, align 4, !tbaa !15
  br label %61

47:                                               ; preds = %6
  %48 = load ptr, ptr %8, align 8, !tbaa !10
  %49 = getelementptr inbounds i8, ptr %48, i64 0
  %50 = load i8, ptr %49, align 1, !tbaa !14
  %51 = zext i8 %50 to i32
  %52 = mul nsw i32 %51, 256
  %53 = load ptr, ptr %8, align 8, !tbaa !10
  %54 = getelementptr inbounds i8, ptr %53, i64 1
  %55 = load i8, ptr %54, align 1, !tbaa !14
  %56 = zext i8 %55 to i32
  %57 = add nsw i32 %52, %56
  %58 = add nsw i32 %57, 24055
  %59 = load i32, ptr %13, align 4, !tbaa !15
  %60 = sub i32 %58, %59
  store i32 %60, ptr %14, align 4, !tbaa !15
  br label %61

61:                                               ; preds = %47, %21
  %62 = load i32, ptr %14, align 4, !tbaa !15
  %63 = lshr i32 %62, 12
  %64 = or i32 224, %63
  %65 = trunc i32 %64 to i8
  %66 = load ptr, ptr %11, align 8, !tbaa !10
  %67 = getelementptr inbounds i8, ptr %66, i64 0
  store i8 %65, ptr %67, align 1, !tbaa !14
  %68 = load i32, ptr %14, align 4, !tbaa !15
  %69 = lshr i32 %68, 6
  %70 = and i32 %69, 63
  %71 = or i32 128, %70
  %72 = trunc i32 %71 to i8
  %73 = load ptr, ptr %11, align 8, !tbaa !10
  %74 = getelementptr inbounds i8, ptr %73, i64 1
  store i8 %72, ptr %74, align 1, !tbaa !14
  %75 = load i32, ptr %14, align 4, !tbaa !15
  %76 = and i32 %75, 63
  %77 = or i32 128, %76
  %78 = trunc i32 %77 to i8
  %79 = load ptr, ptr %11, align 8, !tbaa !10
  %80 = getelementptr inbounds i8, ptr %79, i64 2
  store i8 %78, ptr %80, align 1, !tbaa !14
  call void @llvm.lifetime.end.p0(i64 4, ptr %14) #3
  call void @llvm.lifetime.end.p0(i64 4, ptr %13) #3
  ret i64 3
}