; Function Attrs: mustprogress nofree norecurse nosync nounwind sspstrong willreturn memory(argmem: readwrite) uwtable
define internal noundef i64 @fun_sio_from_gb18030(ptr readnone captures(none) %0, ptr noundef readonly captures(none) %1, i64 %2, i64 noundef %3, ptr noundef writeonly captures(none) initializes((0, 3)) %4, i64 %5) #2 {
  %7 = lshr i64 %3, 8
  %8 = trunc i64 %7 to i32
  %9 = and i32 %8, 131072
  %.not = icmp eq i32 %9, 0
  %10 = load i8, ptr %1, align 1, !tbaa !6
  %11 = zext i8 %10 to i32
  %12 = getelementptr inbounds nuw i8, ptr %1, i64 1
  %13 = load i8, ptr %12, align 1, !tbaa !6
  %14 = zext i8 %13 to i32
  br i1 %.not, label %29, label %15

15:                                               ; preds = %6
  %16 = mul nuw nsw i32 %11, 10
  %17 = add nuw nsw i32 %16, %14
  %18 = mul nuw nsw i32 %17, 126
  %19 = getelementptr inbounds nuw i8, ptr %1, i64 2
  %20 = load i8, ptr %19, align 1, !tbaa !6
  %21 = zext i8 %20 to i32
  %22 = add nuw nsw i32 %18, %21
  %23 = mul nuw nsw i32 %22, 10
  %24 = getelementptr inbounds nuw i8, ptr %1, i64 3
  %25 = load i8, ptr %24, align 1, !tbaa !6
  %26 = zext i8 %25 to i32
  %reass.sub = sub nsw i32 %26, %8
  %27 = add i32 %reass.sub, -1507328
  %28 = add i32 %27, %23
  br label %33

29:                                               ; preds = %6
  %30 = shl nuw nsw i32 %11, 8
  %31 = or disjoint i32 %30, %14
  %reass.sub15 = sub i32 %31, %8
  %32 = add i32 %reass.sub15, 24055
  br label %33

33:                                               ; preds = %29, %15
  %.0 = phi i32 [ %28, %15 ], [ %32, %29 ]
  %34 = lshr i32 %.0, 12
  %35 = trunc i32 %34 to i8
  %36 = or i8 %35, -32
  store i8 %36, ptr %4, align 1, !tbaa !6
  %37 = lshr i32 %.0, 6
  %38 = trunc i32 %37 to i8
  %39 = and i8 %38, 63
  %40 = or disjoint i8 %39, -128
  %41 = getelementptr inbounds nuw i8, ptr %4, i64 1
  store i8 %40, ptr %41, align 1, !tbaa !6
  %42 = trunc i32 %.0 to i8
  %43 = and i8 %42, 63
  %44 = or disjoint i8 %43, -128
  %45 = getelementptr inbounds nuw i8, ptr %4, i64 2
  store i8 %44, ptr %45, align 1, !tbaa !6
  ret i64 3
}